; Function Attrs: mustprogress uwtable
define { i64, i64 } @_ZN2cv6detail12AffineWarper9buildMapsENS_5Size_IiEERKNS_11_InputArrayES6_RKNS_12_OutputArrayES9_(ptr noundef nonnull align 8 dereferenceable(168) %0, i64 %1, ptr noundef nonnull align 8 dereferenceable(24) %2, ptr noundef nonnull align 8 dereferenceable(24) %3, ptr noundef nonnull align 8 dereferenceable(24) %4, ptr noundef nonnull align 8 dereferenceable(24) %5) unnamed_addr #3 align 2 personality ptr @__gxx_personality_v0 {
  %7 = alloca %"class.cv::Mat", align 8
  %8 = alloca %"class.cv::Mat", align 8
  %9 = alloca %"class.cv::_InputArray", align 8
  %10 = alloca %"class.cv::_InputArray", align 8
  call void @llvm.lifetime.start.p0(i64 96, ptr nonnull %7) #22
  call void @_ZN2cv3MatC1Ev(ptr noundef nonnull align 8 dereferenceable(96) %7) #22
  call void @llvm.lifetime.start.p0(i64 96, ptr nonnull %8) #22
  call void @_ZN2cv3MatC1Ev(ptr noundef nonnull align 8 dereferenceable(96) %8) #22
  invoke void @_ZN2cv6detail12AffineWarper20getRTfromHomogeneousERKNS_11_InputArrayERNS_3MatES6_(ptr nonnull align 8 poison, ptr noundef nonnull align 8 dereferenceable(24) %3, ptr noundef nonnull align 8 dereferenceable(96) %7, ptr noundef nonnull align 8 dereferenceable(96) %8)
          to label %11 unwind label %20

11:                                               ; preds = %6
  call void @llvm.lifetime.start.p0(i64 24, ptr nonnull %9) #22
  %12 = getelementptr inbounds nuw i8, ptr %9, i64 16
  store i32 0, ptr %12, align 8, !tbaa !203
  %13 = getelementptr inbounds nuw i8, ptr %9, i64 20
  store i32 0, ptr %13, align 4, !tbaa !204
  store i32 16842752, ptr %9, align 8, !tbaa !205
  %14 = getelementptr inbounds nuw i8, ptr %9, i64 8
  store ptr %7, ptr %14, align 8, !tbaa !160
  call void @llvm.lifetime.start.p0(i64 24, ptr nonnull %10) #22
  %15 = getelementptr inbounds nuw i8, ptr %10, i64 16
  store i32 0, ptr %15, align 8, !tbaa !203
  %16 = getelementptr inbounds nuw i8, ptr %10, i64 20
  store i32 0, ptr %16, align 4, !tbaa !204
  store i32 16842752, ptr %10, align 8, !tbaa !205
  %17 = getelementptr inbounds nuw i8, ptr %10, i64 8
  store ptr %8, ptr %17, align 8, !tbaa !160
  %18 = invoke { i64, i64 } @_ZN2cv6detail11PlaneWarper9buildMapsENS_5Size_IiEERKNS_11_InputArrayES6_S6_RKNS_12_OutputArrayES9_(ptr noundef nonnull align 8 dereferenceable(168) %0, i64 %1, ptr noundef nonnull align 8 dereferenceable(24) %2, ptr noundef nonnull align 8 dereferenceable(24) %9, ptr noundef nonnull align 8 dereferenceable(24) %10, ptr noundef nonnull align 8 dereferenceable(24) %4, ptr noundef nonnull align 8 dereferenceable(24) %5)
          to label %19 unwind label %22

19:                                               ; preds = %11
  call void @llvm.lifetime.end.p0(i64 24, ptr nonnull %10) #22
  call void @llvm.lifetime.end.p0(i64 24, ptr nonnull %9) #22
  call void @_ZN2cv3MatD1Ev(ptr noundef nonnull align 8 dereferenceable(96) %8) #22
  call void @llvm.lifetime.end.p0(i64 96, ptr nonnull %8) #22
  call void @_ZN2cv3MatD1Ev(ptr noundef nonnull align 8 dereferenceable(96) %7) #22
  call void @llvm.lifetime.end.p0(i64 96, ptr nonnull %7) #22
  ret { i64, i64 } %18

20:                                               ; preds = %6
  %21 = landingpad { ptr, i32 }
          cleanup
  br label %24

22:                                               ; preds = %11
  %23 = landingpad { ptr, i32 }
          cleanup
  call void @llvm.lifetime.end.p0(i64 24, ptr nonnull %10) #22
  call void @llvm.lifetime.end.p0(i64 24, ptr nonnull %9) #22
  br label %24

24:                                               ; preds = %22, %20
  %.pn.pn.pn = phi { ptr, i32 } [ %23, %22 ], [ %21, %20 ]
  call void @_ZN2cv3MatD1Ev(ptr noundef nonnull align 8 dereferenceable(96) %8) #22
  call void @llvm.lifetime.end.p0(i64 96, ptr nonnull %8) #22
  call void @_ZN2cv3MatD1Ev(ptr noundef nonnull align 8 dereferenceable(96) %7) #22
  call void @llvm.lifetime.end.p0(i64 96, ptr nonnull %7) #22
  resume { ptr, i32 } %.pn.pn.pn
}